(lp0
I545
aS'............................................................................AAAAAAACAAAAAGATACATATATATGATATATCTGATATATGATATATATATGATATATCTGATATATGATATATATATGATATATCTGATATATGATATATATATGATATATCTGATATATGATATATATATGATATATCTGATATATATACATATGGTATACATGAGATACATCATATGTATATATGGTATACATGAGATACATCATATGTATATATGGTATACATGAGATACATCATATGTATATATGGTATACATGAGATACATCATATGTATACATGAGATACATCATATGTATACATGAGATACATCATATGTATACATGAGATACATCATATGTATACATGAGATACATCATATGTATACATGAGATACATCATATGTATACATGAGATACATCATATGTATACATGAGATACATCATATGTATACATGACATACATCATATGTATACATGACATACATCATATGTATACATGACATACATATGTATATATGATACATATATATCATGTATATATGATACATATGTACATATATATGTATATATGATACATATGTATCATATATATCAGGTATATATGATACATATGTATCATATATATCAGGTATATATGATACATATGTATCATATATATCAGGTATATATGATACATATGTATCATATATATCAGGTATATATGATACATATGTATCATATATATCAGGTATATATGATACATATGTACATATATATCAGGTATATATGTACATATGTACATATATCAGGTATATATGTACATATGTACATATATATCAGGTATATATGTACATATGTACATATATATCAGGTATMTATGTACATATGWTCATATATATCAGGTATATATGTACATATGTTCATATATATCATGTATATATGAACATATGTACGTATATATCATGTATATATGATACATATATACGTATATATCATGTATATATGATACATGTATACGTATATATCATGTATATATGATACATATATACGTATATCATGTATATATGACGTACGTCATATATATCATGTGTATATATGATGTACGTCATATATATCAGATATCATATATACACATATATCCTATATGTGTATATATGATATATGTATATATGATCTATATACATATATATCATATGTTCTATGATATATATGATATATATCATATCTGATATATATGATATATATCATATCTGATATATATGATATATATCATATCTGATATATATGATATATATCATATCTGATATATATGATATATATCATATCTGATATATATGATATATATCATATCTGATATATGATATATATCATATCTGATATATGATATATATCATATCTGATATATATGATATATATCATATCTGATATATATGATATATATCATATCTGATATATATGATATATATCATATCTGATATATATGATATATATCATATCTGATATATATGATATATATCATATCTGATATATATGATATATATCATATCTGATATATATGATATATATCATATCTGATATATATGATATATATCATATCATATATGATATATGATATATATCATATCATATATGATATATGATATATATCATATCATATATGATATATGATATATATGATATATCATATCATATATGATATATGATATATATGATATATCATATCATATAATATATGATATGATATGATATGATATATATGATATATCATATCATATAATATATGATATATATGATATATATCATATATCATATATATAATATATGATATATATGATATATATCATATATCATATCATATATCTTTTTTTTTTTTTT'
p1
a.